target datalayout = "e-m:e-p270:32:32-p271:32:32-p272:64:64-i64:64-i128:128-f80:128-n8:16:32:64-S128"
target triple = "x86_64-pc-linux-gnu"

%struct.OnigEncodingTypeST = type { ptr, ptr, i32, i32, ptr, ptr, ptr, ptr, ptr, ptr, ptr, ptr, ptr, ptr, ptr, ptr, ptr, ptr, ptr, i32, i32, i32 }
%struct.st_callout_name_key = type { ptr, i32, ptr, ptr }
%struct.CalloutNameEntry = type { ptr, i32, i32 }

@GlobalCalloutNameTable = internal global ptr null, align 8
@OnigEncodingASCII = external global %struct.OnigEncodingTypeST, align 8

; Function Attrs: nounwind uwtable
define dso_local i32 @onig_st_lookup_callout_name_table(ptr noundef %0, ptr noundef %1, i32 noundef %2, ptr noundef %3, ptr noundef %4, ptr noundef %5) #0 {
  %7 = alloca ptr, align 8
  %8 = alloca ptr, align 8
  %9 = alloca i32, align 4
  %10 = alloca ptr, align 8
  %11 = alloca ptr, align 8
  %12 = alloca ptr, align 8
  %13 = alloca %struct.st_callout_name_key, align 8
  store ptr %0, ptr %7, align 8, !tbaa !9
  store ptr %1, ptr %8, align 8, !tbaa !32
  store i32 %2, ptr %9, align 4, !tbaa !10
  store ptr %3, ptr %10, align 8, !tbaa !4
  store ptr %4, ptr %11, align 8, !tbaa !4
  store ptr %5, ptr %12, align 8, !tbaa !20
  call void @llvm.lifetime.start.p0(i64 32, ptr %13) #8
  %14 = load ptr, ptr %8, align 8, !tbaa !32
  %15 = getelementptr inbounds nuw %struct.st_callout_name_key, ptr %13, i32 0, i32 0
  store ptr %14, ptr %15, align 8, !tbaa !24
  %16 = load i32, ptr %9, align 4, !tbaa !10
  %17 = getelementptr inbounds nuw %struct.st_callout_name_key, ptr %13, i32 0, i32 1
  store i32 %16, ptr %17, align 8, !tbaa !27
  %18 = load ptr, ptr %10, align 8, !tbaa !4
  %19 = getelementptr inbounds nuw %struct.st_callout_name_key, ptr %13, i32 0, i32 2
  store ptr %18, ptr %19, align 8, !tbaa !29
  %20 = load ptr, ptr %11, align 8, !tbaa !4
  %21 = getelementptr inbounds nuw %struct.st_callout_name_key, ptr %13, i32 0, i32 3
  store ptr %20, ptr %21, align 8, !tbaa !28
  %22 = load ptr, ptr %7, align 8, !tbaa !9
  %23 = ptrtoint ptr %13 to i64
  %24 = load ptr, ptr %12, align 8, !tbaa !20
  %25 = call i32 @onig_st_lookup(ptr noundef %22, i64 noundef %23, ptr noundef %24)
  call void @llvm.lifetime.end.p0(i64 32, ptr %13) #8
  ret i32 %25
}

; Function Attrs: nounwind uwtable
define internal ptr @callout_name_find(ptr noundef %0, i32 noundef %1, ptr noundef %2, ptr noundef %3) #0 {
  %5 = alloca ptr, align 8
  %6 = alloca i32, align 4
  %7 = alloca ptr, align 8
  %8 = alloca ptr, align 8
  %9 = alloca i32, align 4
  %10 = alloca ptr, align 8
  %11 = alloca ptr, align 8
  store ptr %0, ptr %5, align 8, !tbaa !32
  store i32 %1, ptr %6, align 4, !tbaa !10
  store ptr %2, ptr %7, align 8, !tbaa !4
  store ptr %3, ptr %8, align 8, !tbaa !4
  call void @llvm.lifetime.start.p0(i64 4, ptr %9) #8
  call void @llvm.lifetime.start.p0(i64 8, ptr %10) #8
  call void @llvm.lifetime.start.p0(i64 8, ptr %11) #8
  %12 = load ptr, ptr @GlobalCalloutNameTable, align 8, !tbaa !37
  store ptr %12, ptr %11, align 8, !tbaa !37
  store ptr null, ptr %10, align 8, !tbaa !9
  %13 = load ptr, ptr %11, align 8, !tbaa !37
  %14 = icmp ne ptr %13, null
  br i1 %14, label %15, label %42

15:                                               ; preds = %4
  %16 = load ptr, ptr %11, align 8, !tbaa !37
  %17 = load ptr, ptr %5, align 8, !tbaa !32
  %18 = load i32, ptr %6, align 4, !tbaa !10
  %19 = load ptr, ptr %7, align 8, !tbaa !4
  %20 = load ptr, ptr %8, align 8, !tbaa !4
  %21 = call i32 @onig_st_lookup_callout_name_table(ptr noundef %16, ptr noundef %17, i32 noundef %18, ptr noundef %19, ptr noundef %20, ptr noundef %10)
  store i32 %21, ptr %9, align 4, !tbaa !10
  %22 = load i32, ptr %9, align 4, !tbaa !10
  %23 = icmp eq i32 %22, 0
  br i1 %23, label %24, label %41

24:                                               ; preds = %15
  %25 = load ptr, ptr %5, align 8, !tbaa !32
  %26 = icmp ne ptr %25, @OnigEncodingASCII
  br i1 %26, label %27, label %40

27:                                               ; preds = %24
  %28 = load ptr, ptr %5, align 8, !tbaa !32
  %29 = getelementptr inbounds nuw %struct.OnigEncodingTypeST, ptr %28, i32 0, i32 19
  %30 = load i32, ptr %29, align 8, !tbaa !185
  %31 = and i32 %30, 1
  %32 = icmp ne i32 %31, 0
  br i1 %32, label %33, label %40

33:                                               ; preds = %27
  store ptr @OnigEncodingASCII, ptr %5, align 8, !tbaa !32
  %34 = load ptr, ptr %11, align 8, !tbaa !37
  %35 = load ptr, ptr %5, align 8, !tbaa !32
  %36 = load i32, ptr %6, align 4, !tbaa !10
  %37 = load ptr, ptr %7, align 8, !tbaa !4
  %38 = load ptr, ptr %8, align 8, !tbaa !4
  %39 = call i32 @onig_st_lookup_callout_name_table(ptr noundef %34, ptr noundef %35, i32 noundef %36, ptr noundef %37, ptr noundef %38, ptr noundef %10)
  br label %40

40:                                               ; preds = %33, %27, %24
  br label %41

41:                                               ; preds = %40, %15
  br label %42

42:                                               ; preds = %41, %4
  %43 = load ptr, ptr %10, align 8, !tbaa !9
  call void @llvm.lifetime.end.p0(i64 8, ptr %11) #8
  call void @llvm.lifetime.end.p0(i64 8, ptr %10) #8
  call void @llvm.lifetime.end.p0(i64 4, ptr %9) #8
  ret ptr %43
}

; Function Attrs: nounwind uwtable
define internal i32 @is_allowed_callout_name(ptr noundef %0, ptr noundef %1, ptr noundef %2) #0 {
  %4 = alloca i32, align 4
  %5 = alloca ptr, align 8
  %6 = alloca ptr, align 8
  %7 = alloca ptr, align 8
  %8 = alloca ptr, align 8
  %9 = alloca i32, align 4
  %10 = alloca i32, align 4
  store ptr %0, ptr %5, align 8, !tbaa !32
  store ptr %1, ptr %6, align 8, !tbaa !4
  store ptr %2, ptr %7, align 8, !tbaa !4
  call void @llvm.lifetime.start.p0(i64 8, ptr %8) #8
  call void @llvm.lifetime.start.p0(i64 4, ptr %9) #8
  %11 = load ptr, ptr %6, align 8, !tbaa !4
  %12 = load ptr, ptr %7, align 8, !tbaa !4
  %13 = icmp uge ptr %11, %12
  br i1 %13, label %14, label %15

14:                                               ; preds = %3
  store i32 0, ptr %4, align 4
  store i32 1, ptr %10, align 4
  br label %71

15:                                               ; preds = %3
  %16 = load ptr, ptr %6, align 8, !tbaa !4
  store ptr %16, ptr %8, align 8, !tbaa !4
  br label %17

17:                                               ; preds = %61, %15
  %18 = load ptr, ptr %8, align 8, !tbaa !4
  %19 = load ptr, ptr %7, align 8, !tbaa !4
  %20 = icmp ult ptr %18, %19
  br i1 %20, label %21, label %70

21:                                               ; preds = %17
  %22 = load ptr, ptr %5, align 8, !tbaa !32
  %23 = getelementptr inbounds nuw %struct.OnigEncodingTypeST, ptr %22, i32 0, i32 5
  %24 = load ptr, ptr %23, align 8, !tbaa !92
  %25 = load ptr, ptr %8, align 8, !tbaa !4
  %26 = load ptr, ptr %7, align 8, !tbaa !4
  %27 = call i32 %24(ptr noundef %25, ptr noundef %26)
  store i32 %27, ptr %9, align 4, !tbaa !10
  %28 = load i32, ptr %9, align 4, !tbaa !10
  %29 = icmp uge i32 %28, 65
  br i1 %29, label %30, label %33

30:                                               ; preds = %21
  %31 = load i32, ptr %9, align 4, !tbaa !10
  %32 = icmp ule i32 %31, 90
  br i1 %32, label %49, label %33

33:                                               ; preds = %30, %21
  %34 = load i32, ptr %9, align 4, !tbaa !10
  %35 = icmp uge i32 %34, 97
  br i1 %35, label %36, label %39

36:                                               ; preds = %33
  %37 = load i32, ptr %9, align 4, !tbaa !10
  %38 = icmp ule i32 %37, 122
  br i1 %38, label %49, label %39

39:                                               ; preds = %36, %33
  %40 = load i32, ptr %9, align 4, !tbaa !10
  %41 = icmp uge i32 %40, 48
  br i1 %41, label %42, label %45

42:                                               ; preds = %39
  %43 = load i32, ptr %9, align 4, !tbaa !10
  %44 = icmp ule i32 %43, 57
  br i1 %44, label %49, label %45

45:                                               ; preds = %42, %39
  %46 = load i32, ptr %9, align 4, !tbaa !10
  %47 = icmp eq i32 %46, 95
  br i1 %47, label %49, label %48

48:                                               ; preds = %45
  store i32 0, ptr %4, align 4
  store i32 1, ptr %10, align 4
  br label %71

49:                                               ; preds = %45, %42, %36, %30
  %50 = load ptr, ptr %8, align 8, !tbaa !4
  %51 = load ptr, ptr %6, align 8, !tbaa !4
  %52 = icmp eq ptr %50, %51
  br i1 %52, label %53, label %61

53:                                               ; preds = %49
  %54 = load i32, ptr %9, align 4, !tbaa !10
  %55 = icmp uge i32 %54, 48
  br i1 %55, label %56, label %60

56:                                               ; preds = %53
  %57 = load i32, ptr %9, align 4, !tbaa !10
  %58 = icmp ule i32 %57, 57
  br i1 %58, label %59, label %60

59:                                               ; preds = %56
  store i32 0, ptr %4, align 4
  store i32 1, ptr %10, align 4
  br label %71

60:                                               ; preds = %56, %53
  br label %61

61:                                               ; preds = %60, %49
  %62 = load ptr, ptr %5, align 8, !tbaa !32
  %63 = getelementptr inbounds nuw %struct.OnigEncodingTypeST, ptr %62, i32 0, i32 0
  %64 = load ptr, ptr %63, align 8, !tbaa !94
  %65 = load ptr, ptr %8, align 8, !tbaa !4
  %66 = call i32 %64(ptr noundef %65)
  %67 = load ptr, ptr %8, align 8, !tbaa !4
  %68 = sext i32 %66 to i64
  %69 = getelementptr inbounds i8, ptr %67, i64 %68
  store ptr %69, ptr %8, align 8, !tbaa !4
  br label %17, !llvm.loop !95

70:                                               ; preds = %17
  store i32 1, ptr %4, align 4
  store i32 1, ptr %10, align 4
  br label %71

71:                                               ; preds = %70, %59, %48, %14
  call void @llvm.lifetime.end.p0(i64 4, ptr %9) #8
  call void @llvm.lifetime.end.p0(i64 8, ptr %8) #8
  %72 = load i32, ptr %4, align 4
  ret i32 %72
}

; Function Attrs: nounwind uwtable
define internal i32 @get_callout_name_id_by_name(ptr noundef %0, i32 noundef %1, ptr noundef %2, ptr noundef %3, ptr noundef %4) #0 {
  %6 = alloca i32, align 4
  %7 = alloca ptr, align 8
  %8 = alloca i32, align 4
  %9 = alloca ptr, align 8
  %10 = alloca ptr, align 8
  %11 = alloca ptr, align 8
  %12 = alloca i32, align 4
  %13 = alloca ptr, align 8
  %14 = alloca i32, align 4
  store ptr %0, ptr %7, align 8, !tbaa !32
  store i32 %1, ptr %8, align 4, !tbaa !10
  store ptr %2, ptr %9, align 8, !tbaa !4
  store ptr %3, ptr %10, align 8, !tbaa !4
  store ptr %4, ptr %11, align 8, !tbaa !62
  call void @llvm.lifetime.start.p0(i64 4, ptr %12) #8
  call void @llvm.lifetime.start.p0(i64 8, ptr %13) #8
  %15 = load ptr, ptr %7, align 8, !tbaa !32
  %16 = load ptr, ptr %9, align 8, !tbaa !4
  %17 = load ptr, ptr %10, align 8, !tbaa !4
  %18 = call i32 @is_allowed_callout_name(ptr noundef %15, ptr noundef %16, ptr noundef %17)
  %19 = icmp ne i32 %18, 0
  br i1 %19, label %21, label %20

20:                                               ; preds = %5
  store i32 -228, ptr %6, align 4
  store i32 1, ptr %14, align 4
  br label %36

21:                                               ; preds = %5
  %22 = load ptr, ptr %7, align 8, !tbaa !32
  %23 = load i32, ptr %8, align 4, !tbaa !10
  %24 = load ptr, ptr %9, align 8, !tbaa !4
  %25 = load ptr, ptr %10, align 8, !tbaa !4
  %26 = call ptr @callout_name_find(ptr noundef %22, i32 noundef %23, ptr noundef %24, ptr noundef %25)
  store ptr %26, ptr %13, align 8, !tbaa !9
  %27 = load ptr, ptr %13, align 8, !tbaa !9
  %28 = icmp eq ptr %27, null
  br i1 %28, label %29, label %30

29:                                               ; preds = %21
  store i32 -229, ptr %6, align 4
  store i32 1, ptr %14, align 4
  br label %36

30:                                               ; preds = %21
  store i32 0, ptr %12, align 4, !tbaa !10
  %31 = load ptr, ptr %13, align 8, !tbaa !9
  %32 = getelementptr inbounds nuw %struct.CalloutNameEntry, ptr %31, i32 0, i32 2
  %33 = load i32, ptr %32, align 4, !tbaa !96
  %34 = load ptr, ptr %11, align 8, !tbaa !62
  store i32 %33, ptr %34, align 4, !tbaa !10
  %35 = load i32, ptr %12, align 4, !tbaa !10
  store i32 %35, ptr %6, align 4
  store i32 1, ptr %14, align 4
  br label %36

36:                                               ; preds = %30, %29, %20
  call void @llvm.lifetime.end.p0(i64 8, ptr %13) #8
  call void @llvm.lifetime.end.p0(i64 4, ptr %12) #8
  %37 = load i32, ptr %6, align 4
  ret i32 %37
}