; Function Attrs: nounwind uwtable
define internal fastcc range(i32 -229, 1) i32 @get_callout_name_id_by_name(ptr noundef %0, i32 noundef range(i32 0, 2) %1, ptr noundef %2, ptr noundef %3, ptr noundef nonnull writeonly captures(none) %4) unnamed_addr #2 {
  %6 = alloca %struct.st_callout_name_key, align 8
  %7 = alloca %struct.st_callout_name_key, align 8
  %8 = alloca ptr, align 8
  %.not.i = icmp ult ptr %2, %3
  br i1 %.not.i, label %.preheader.i, label %is_allowed_callout_name.exit.thread

.preheader.i:                                     ; preds = %5
  %9 = getelementptr inbounds nuw i8, ptr %0, i64 32
  br label %10

10:                                               ; preds = %.thread.i, %.preheader.i
  %.03138.i = phi ptr [ %2, %.preheader.i ], [ %22, %.thread.i ]
  %11 = load ptr, ptr %9, align 8, !tbaa !80
  %12 = tail call i32 %11(ptr noundef %.03138.i, ptr noundef nonnull %3) #25
  %13 = and i32 %12, -33
  %14 = add i32 %13, -65
  %or.cond34.i = icmp ult i32 %14, 26
  br i1 %or.cond34.i, label %.thread.i, label %15

15:                                               ; preds = %10
  %16 = add i32 %12, -48
  %or.cond5.i = icmp ult i32 %16, 10
  %17 = icmp ne i32 %12, 95
  %18 = icmp eq ptr %.03138.i, %2
  %or.cond.i = select i1 %or.cond5.i, i1 %18, i1 %17
  br i1 %or.cond.i, label %is_allowed_callout_name.exit.thread, label %.thread.i

.thread.i:                                        ; preds = %15, %10
  %19 = load ptr, ptr %0, align 8, !tbaa !82
  %20 = tail call i32 %19(ptr noundef %.03138.i) #25
  %21 = sext i32 %20 to i64
  %22 = getelementptr inbounds i8, ptr %.03138.i, i64 %21
  %23 = icmp ult ptr %22, %3
  br i1 %23, label %10, label %is_allowed_callout_name.exit, !llvm.loop !83

is_allowed_callout_name.exit:                     ; preds = %.thread.i
  call void @llvm.lifetime.start.p0(i64 8, ptr nonnull %8) #25
  %24 = load ptr, ptr @GlobalCalloutNameTable, align 8, !tbaa !84
  store ptr null, ptr %8, align 8, !tbaa !4
  %.not.i12 = icmp eq ptr %24, null
  br i1 %.not.i12, label %callout_name_find.exit.thread, label %25

callout_name_find.exit.thread:                    ; preds = %is_allowed_callout_name.exit
  call void @llvm.lifetime.end.p0(i64 8, ptr nonnull %8) #25
  br label %is_allowed_callout_name.exit.thread

25:                                               ; preds = %is_allowed_callout_name.exit
  call void @llvm.lifetime.start.p0(i64 32, ptr nonnull %7) #25
  store ptr %0, ptr %7, align 8, !tbaa !19
  %26 = getelementptr inbounds nuw i8, ptr %7, i64 8
  store i32 %1, ptr %26, align 8, !tbaa !22
  %27 = getelementptr inbounds nuw i8, ptr %7, i64 16
  store ptr %2, ptr %27, align 8, !tbaa !24
  %28 = getelementptr inbounds nuw i8, ptr %7, i64 24
  store ptr %3, ptr %28, align 8, !tbaa !23
  %29 = ptrtoint ptr %7 to i64
  %30 = call i32 @onig_st_lookup(ptr noundef nonnull %24, i64 noundef %29, ptr noundef nonnull %8) #25
  call void @llvm.lifetime.end.p0(i64 32, ptr nonnull %7) #25
  %31 = icmp eq i32 %30, 0
  %32 = icmp ne ptr %0, @OnigEncodingASCII
  %or.cond.i13 = and i1 %32, %31
  br i1 %or.cond.i13, label %33, label %callout_name_find.exit

33:                                               ; preds = %25
  %34 = getelementptr inbounds nuw i8, ptr %0, i64 144
  %35 = load i32, ptr %34, align 8, !tbaa !86
  %36 = and i32 %35, 1
  %.not15.i = icmp eq i32 %36, 0
  br i1 %.not15.i, label %callout_name_find.exit, label %37

37:                                               ; preds = %33
  call void @llvm.lifetime.start.p0(i64 32, ptr nonnull %6) #25
  store ptr @OnigEncodingASCII, ptr %6, align 8, !tbaa !19
  %38 = getelementptr inbounds nuw i8, ptr %6, i64 8
  store i32 %1, ptr %38, align 8, !tbaa !22
  %39 = getelementptr inbounds nuw i8, ptr %6, i64 16
  store ptr %2, ptr %39, align 8, !tbaa !24
  %40 = getelementptr inbounds nuw i8, ptr %6, i64 24
  store ptr %3, ptr %40, align 8, !tbaa !23
  %41 = ptrtoint ptr %6 to i64
  %42 = call i32 @onig_st_lookup(ptr noundef nonnull %24, i64 noundef %41, ptr noundef nonnull %8) #25
  call void @llvm.lifetime.end.p0(i64 32, ptr nonnull %6) #25
  br label %callout_name_find.exit

callout_name_find.exit:                           ; preds = %25, %33, %37
  %.pr = load ptr, ptr %8, align 8, !tbaa !4
  call void @llvm.lifetime.end.p0(i64 8, ptr nonnull %8) #25
  %43 = icmp eq ptr %.pr, null
  br i1 %43, label %is_allowed_callout_name.exit.thread, label %44

44:                                               ; preds = %callout_name_find.exit
  %45 = getelementptr inbounds nuw i8, ptr %.pr, i64 12
  %46 = load i32, ptr %45, align 4, !tbaa !87
  store i32 %46, ptr %4, align 4, !tbaa !8
  br label %is_allowed_callout_name.exit.thread

is_allowed_callout_name.exit.thread:              ; preds = %15, %5, %callout_name_find.exit.thread, %callout_name_find.exit, %44
  %.0 = phi i32 [ 0, %44 ], [ -229, %callout_name_find.exit ], [ -229, %callout_name_find.exit.thread ], [ -228, %5 ], [ -228, %15 ]
  ret i32 %.0
}